(lp0
(ibase
ItemFirm
p1
(dp2
S'numberofmodel'
p3
I1
sS'currentnumbofmodels'
p4
I0
sS'list'
p5
(lp6
(ibase
ItemModel
p7
(dp8
S'_ItemModel__modelnumb'
p9
I1
sS'_ItemModel__capacity'
p10
I3
sS'_ItemModel__name'
p11
S'BENZ'
p12
sbasS'_ItemFirm__firmnum'
p13
I1
sS'_ItemFirm__name'
p14
S'MERSEDES'
p15
sba(ibase
ItemFirm
p16
(dp17
g3
I1
sg4
I0
sg5
(lp18
(ibase
ItemModel
p19
(dp20
g9
I1
sg10
I2
sg11
S'SPORT'
p21
sbasg13
I1
sg14
S'FERRARI'
p22
sba(ibase
ItemFirm
p23
(dp24
g3
I1
sg4
I0
sg5
(lp25
(ibase
ItemModel
p26
(dp27
g9
I1
sg10
I1
sg11
S'CARRERA'
p28
sbasg13
I1
sg14
S'PORSHE'
p29
sba.